target datalayout = "e-m:e-p270:32:32-p271:32:32-p272:64:64-i64:64-i128:128-f80:128-n8:16:32:64-S128"
target triple = "x86_64-pc-linux-gnu"

%struct._zval_struct = type { %union._zend_value, %union.anon.3, %union.anon.6 }
%union._zend_value = type { i64 }
%union.anon.3 = type { i32 }
%union.anon.6 = type { i32 }
%struct._zend_refcounted_h = type { i32, %union.anon.1 }
%union.anon.1 = type { i32 }
%struct._pdo_stmt_t = type { ptr, ptr, [6 x i8], i16, ptr, ptr, ptr, ptr, i32, i32, %union.anon, ptr, ptr, ptr, i64, ptr, ptr, ptr, %struct._zend_object }
%union.anon = type { %struct.anon.0 }
%struct.anon.0 = type { %struct._zend_fcall_info_cache }
%struct._zend_fcall_info_cache = type { ptr, ptr, ptr, ptr, ptr }
%struct._zend_object = type { %struct._zend_refcounted_h, i32, i32, ptr, ptr, ptr, [1 x %struct._zval_struct] }
%struct._zend_string = type { %struct._zend_refcounted_h, i64, i64, [1 x i8] }
%struct.anon.4 = type { i8, i8, %union.anon.5 }
%union.anon.5 = type { i16 }

@.str.41 = private unnamed_addr constant [6 x i8] c"HY000\00", align 1
@.str.51 = private unnamed_addr constant [85 x i8] c"PDO::FETCH_KEY_PAIR fetch mode requires the result set to contain exactly 2 columns.\00", align 1

; Function Attrs: alwaysinline nounwind uwtable
define internal zeroext i1 @_zend_handle_numeric_str(ptr noundef %0, i64 noundef %1, ptr noundef %2) #3 {
  %4 = alloca i1, align 1
  %5 = alloca ptr, align 8
  %6 = alloca i64, align 8
  %7 = alloca ptr, align 8
  %8 = alloca ptr, align 8
  %9 = alloca i32, align 4
  store ptr %0, ptr %5, align 8, !tbaa !52
  store i64 %1, ptr %6, align 8, !tbaa !92
  store ptr %2, ptr %7, align 8, !tbaa !119
  call void @llvm.lifetime.start.p0(i64 8, ptr %8) #14
  %10 = load ptr, ptr %5, align 8, !tbaa !52
  store ptr %10, ptr %8, align 8, !tbaa !52
  %11 = load ptr, ptr %8, align 8, !tbaa !52
  %12 = load i8, ptr %11, align 1, !tbaa !45
  %13 = sext i8 %12 to i32
  %14 = icmp sgt i32 %13, 57
  %15 = xor i1 %14, true
  %16 = xor i1 %15, true
  %17 = zext i1 %16 to i32
  %18 = sext i32 %17 to i64
  %19 = call i64 @llvm.expect.i64(i64 %18, i64 1)
  %20 = icmp ne i64 %19, 0
  br i1 %20, label %21, label %22

21:                                               ; preds = %3
  store i1 false, ptr %4, align 1
  store i32 1, ptr %9, align 4
  br label %53

22:                                               ; preds = %3
  %23 = load ptr, ptr %8, align 8, !tbaa !52
  %24 = load i8, ptr %23, align 1, !tbaa !45
  %25 = sext i8 %24 to i32
  %26 = icmp slt i32 %25, 48
  br i1 %26, label %27, label %47

27:                                               ; preds = %22
  %28 = load ptr, ptr %8, align 8, !tbaa !52
  %29 = load i8, ptr %28, align 1, !tbaa !45
  %30 = sext i8 %29 to i32
  %31 = icmp ne i32 %30, 45
  br i1 %31, label %32, label %33

32:                                               ; preds = %27
  store i1 false, ptr %4, align 1
  store i32 1, ptr %9, align 4
  br label %53

33:                                               ; preds = %27
  %34 = load ptr, ptr %8, align 8, !tbaa !52
  %35 = getelementptr inbounds nuw i8, ptr %34, i32 1
  store ptr %35, ptr %8, align 8, !tbaa !52
  %36 = load ptr, ptr %8, align 8, !tbaa !52
  %37 = load i8, ptr %36, align 1, !tbaa !45
  %38 = sext i8 %37 to i32
  %39 = icmp sgt i32 %38, 57
  br i1 %39, label %45, label %40

40:                                               ; preds = %33
  %41 = load ptr, ptr %8, align 8, !tbaa !52
  %42 = load i8, ptr %41, align 1, !tbaa !45
  %43 = sext i8 %42 to i32
  %44 = icmp slt i32 %43, 48
  br i1 %44, label %45, label %46

45:                                               ; preds = %40, %33
  store i1 false, ptr %4, align 1
  store i32 1, ptr %9, align 4
  br label %53

46:                                               ; preds = %40
  br label %47

47:                                               ; preds = %46, %22
  br label %48

48:                                               ; preds = %47
  %49 = load ptr, ptr %5, align 8, !tbaa !52
  %50 = load i64, ptr %6, align 8, !tbaa !92
  %51 = load ptr, ptr %7, align 8, !tbaa !119
  %52 = call zeroext i1 @_zend_handle_numeric_str_ex(ptr noundef %49, i64 noundef %50, ptr noundef %51)
  store i1 %52, ptr %4, align 1
  store i32 1, ptr %9, align 4
  br label %53

53:                                               ; preds = %48, %45, %32, %21
  call void @llvm.lifetime.end.p0(i64 8, ptr %8) #14
  %54 = load i1, ptr %4, align 1
  ret i1 %54
}

; Function Attrs: alwaysinline nounwind uwtable
define internal ptr @zend_symtable_update(ptr noundef %0, ptr noundef %1, ptr noundef %2) #3 {
  %4 = alloca ptr, align 8
  %5 = alloca ptr, align 8
  %6 = alloca ptr, align 8
  %7 = alloca ptr, align 8
  %8 = alloca i64, align 8
  %9 = alloca i32, align 4
  store ptr %0, ptr %5, align 8, !tbaa !46
  store ptr %1, ptr %6, align 8, !tbaa !39
  store ptr %2, ptr %7, align 8, !tbaa !47
  call void @llvm.lifetime.start.p0(i64 8, ptr %8) #14
  %10 = load ptr, ptr %6, align 8, !tbaa !39
  %11 = getelementptr inbounds nuw %struct._zend_string, ptr %10, i32 0, i32 3
  %12 = getelementptr inbounds [1 x i8], ptr %11, i64 0, i64 0
  %13 = load ptr, ptr %6, align 8, !tbaa !39
  %14 = getelementptr inbounds nuw %struct._zend_string, ptr %13, i32 0, i32 2
  %15 = load i64, ptr %14, align 8, !tbaa !115
  %16 = call zeroext i1 @_zend_handle_numeric_str(ptr noundef %12, i64 noundef %15, ptr noundef %8)
  br i1 %16, label %17, label %22

17:                                               ; preds = %3
  %18 = load ptr, ptr %5, align 8, !tbaa !46
  %19 = load i64, ptr %8, align 8, !tbaa !92
  %20 = load ptr, ptr %7, align 8, !tbaa !47
  %21 = call ptr @zend_hash_index_update(ptr noundef %18, i64 noundef %19, ptr noundef %20)
  store ptr %21, ptr %4, align 8
  store i32 1, ptr %9, align 4
  br label %27

22:                                               ; preds = %3
  %23 = load ptr, ptr %5, align 8, !tbaa !46
  %24 = load ptr, ptr %6, align 8, !tbaa !39
  %25 = load ptr, ptr %7, align 8, !tbaa !47
  %26 = call ptr @zend_hash_update(ptr noundef %23, ptr noundef %24, ptr noundef %25)
  store ptr %26, ptr %4, align 8
  store i32 1, ptr %9, align 4
  br label %27

27:                                               ; preds = %22, %17
  call void @llvm.lifetime.end.p0(i64 8, ptr %8) #14
  %28 = load ptr, ptr %4, align 8
  ret ptr %28
}

; Function Attrs: alwaysinline nounwind uwtable
define internal zeroext i8 @zval_get_type(ptr noundef %0) #3 {
  %2 = alloca ptr, align 8
  store ptr %0, ptr %2, align 8, !tbaa !47
  %3 = load ptr, ptr %2, align 8, !tbaa !47
  %4 = getelementptr inbounds nuw %struct._zval_struct, ptr %3, i32 0, i32 1
  %5 = getelementptr inbounds nuw %struct.anon.4, ptr %4, i32 0, i32 0
  %6 = load i8, ptr %5, align 8, !tbaa !45
  ret i8 %6
}

; Function Attrs: nounwind uwtable
define internal zeroext i1 @pdo_do_key_pair_fetch(ptr noundef %0, i32 noundef %1, i64 noundef %2, ptr noundef %3) #0 {
  %5 = alloca i1, align 1
  %6 = alloca ptr, align 8
  %7 = alloca i32, align 4
  %8 = alloca i64, align 8
  %9 = alloca ptr, align 8
  %10 = alloca %struct._zval_struct, align 8
  %11 = alloca %struct._zval_struct, align 8
  store ptr %0, ptr %6, align 8, !tbaa !4
  store i32 %1, ptr %7, align 4, !tbaa !26
  store i64 %2, ptr %8, align 8, !tbaa !92
  store ptr %3, ptr %9, align 8, !tbaa !46
  %12 = load ptr, ptr %6, align 8, !tbaa !4
  %13 = load i32, ptr %7, align 4, !tbaa !26
  %14 = load i64, ptr %8, align 8, !tbaa !92
  %15 = call zeroext i1 @do_fetch_common(ptr noundef %12, i32 noundef %13, i64 noundef %14)
  br i1 %15, label %17, label %16

16:                                               ; preds = %4
  store i1 false, ptr %5, align 1
  br label %49

17:                                               ; preds = %4
  %18 = load ptr, ptr %6, align 8, !tbaa !4
  %19 = getelementptr inbounds nuw %struct._pdo_stmt_t, ptr %18, i32 0, i32 8
  %20 = load i32, ptr %19, align 8, !tbaa !9
  %21 = icmp ne i32 %20, 2
  br i1 %21, label %22, label %27

22:                                               ; preds = %17
  %23 = load ptr, ptr %6, align 8, !tbaa !4
  %24 = getelementptr inbounds nuw %struct._pdo_stmt_t, ptr %23, i32 0, i32 12
  %25 = load ptr, ptr %24, align 8, !tbaa !30
  %26 = load ptr, ptr %6, align 8, !tbaa !4
  call void @pdo_raise_impl_error(ptr noundef %25, ptr noundef %26, ptr noundef @.str.41, ptr noundef @.str.51)
  store i1 false, ptr %5, align 1
  br label %49

27:                                               ; preds = %17
  call void @llvm.lifetime.start.p0(i64 16, ptr %10) #14
  call void @llvm.lifetime.start.p0(i64 16, ptr %11) #14
  %28 = load ptr, ptr %6, align 8, !tbaa !4
  call void @fetch_value(ptr noundef %28, ptr noundef %10, i32 noundef 0, ptr noundef null)
  %29 = load ptr, ptr %6, align 8, !tbaa !4
  call void @fetch_value(ptr noundef %29, ptr noundef %11, i32 noundef 1, ptr noundef null)
  %30 = call zeroext i8 @zval_get_type(ptr noundef %10)
  %31 = zext i8 %30 to i32
  %32 = icmp eq i32 %31, 4
  br i1 %32, label %33, label %38

33:                                               ; preds = %27
  %34 = load ptr, ptr %9, align 8, !tbaa !46
  %35 = getelementptr inbounds nuw %struct._zval_struct, ptr %10, i32 0, i32 0
  %36 = load i64, ptr %35, align 8, !tbaa !45
  %37 = call ptr @zend_hash_index_update(ptr noundef %34, i64 noundef %36, ptr noundef %11)
  br label %48

38:                                               ; preds = %27
  %39 = call zeroext i8 @zval_get_type(ptr noundef %10)
  %40 = zext i8 %39 to i32
  %41 = icmp ne i32 %40, 6
  br i1 %41, label %42, label %43

42:                                               ; preds = %38
  call void @_convert_to_string(ptr noundef %10)
  br label %43

43:                                               ; preds = %42, %38
  %44 = load ptr, ptr %9, align 8, !tbaa !46
  %45 = getelementptr inbounds nuw %struct._zval_struct, ptr %10, i32 0, i32 0
  %46 = load ptr, ptr %45, align 8, !tbaa !45
  %47 = call ptr @zend_symtable_update(ptr noundef %44, ptr noundef %46, ptr noundef %11)
  br label %48

48:                                               ; preds = %43, %33
  call void @zval_ptr_dtor(ptr noundef %10)
  store i1 true, ptr %5, align 1
  call void @llvm.lifetime.end.p0(i64 16, ptr %11) #14
  call void @llvm.lifetime.end.p0(i64 16, ptr %10) #14
  br label %49

49:                                               ; preds = %48, %22, %16
  %50 = load i1, ptr %5, align 1
  ret i1 %50
}