; Function Attrs: nounwind uwtable
define internal fastcc noundef zeroext i1 @pdo_do_key_pair_fetch(ptr noundef %0, i32 noundef %1, i64 noundef %2, ptr noundef %3) unnamed_addr #0 {
  %5 = alloca i64, align 8
  %6 = alloca %struct._zval_struct, align 8
  %7 = alloca %struct._zval_struct, align 8
  %8 = tail call fastcc zeroext i1 @do_fetch_common(ptr noundef %0, i32 noundef %1, i64 noundef %2)
  br i1 %8, label %9, label %42

9:                                                ; preds = %4
  %10 = getelementptr inbounds nuw i8, ptr %0, i64 56
  %11 = load i32, ptr %10, align 8, !tbaa !4
  %.not = icmp eq i32 %11, 2
  br i1 %.not, label %15, label %12

12:                                               ; preds = %9
  %13 = getelementptr inbounds nuw i8, ptr %0, i64 112
  %14 = load ptr, ptr %13, align 8, !tbaa !27
  tail call void @pdo_raise_impl_error(ptr noundef %14, ptr noundef nonnull %0, ptr noundef nonnull @.str.41, ptr noundef nonnull @.str.51) #17
  br label %42

15:                                               ; preds = %9
  call void @llvm.lifetime.start.p0(i64 16, ptr nonnull %6) #17
  call void @llvm.lifetime.start.p0(i64 16, ptr nonnull %7) #17
  call fastcc void @fetch_value(ptr noundef nonnull %0, ptr noundef nonnull %6, i32 noundef 0, ptr noundef null)
  call fastcc void @fetch_value(ptr noundef nonnull %0, ptr noundef nonnull %7, i32 noundef 1, ptr noundef null)
  %16 = getelementptr inbounds nuw i8, ptr %6, i64 8
  %17 = load i8, ptr %16, align 8, !tbaa !37
  switch i8 %17, label %21 [
    i8 4, label %18
    i8 6, label %22
  ]

18:                                               ; preds = %15
  %19 = load i64, ptr %6, align 8, !tbaa !37
  %20 = call ptr @zend_hash_index_update(ptr noundef %3, i64 noundef %19, ptr noundef nonnull %7) #17
  br label %41

21:                                               ; preds = %15
  call void @_convert_to_string(ptr noundef nonnull %6) #17
  br label %22

22:                                               ; preds = %15, %21
  %23 = load ptr, ptr %6, align 8, !tbaa !37
  call void @llvm.lifetime.start.p0(i64 8, ptr nonnull %5) #17
  %24 = getelementptr inbounds nuw i8, ptr %23, i64 24
  %25 = getelementptr inbounds nuw i8, ptr %23, i64 16
  %26 = load i64, ptr %25, align 8, !tbaa !97
  %27 = load i8, ptr %24, align 1, !tbaa !37
  %28 = icmp sgt i8 %27, 57
  br i1 %28, label %_zend_handle_numeric_str.exit.thread, label %29, !prof !104

29:                                               ; preds = %22
  %30 = icmp slt i8 %27, 48
  br i1 %30, label %31, label %_zend_handle_numeric_str.exit

31:                                               ; preds = %29
  %.not.i = icmp eq i8 %27, 45
  br i1 %.not.i, label %32, label %_zend_handle_numeric_str.exit.thread

32:                                               ; preds = %31
  %33 = getelementptr inbounds nuw i8, ptr %23, i64 25
  %34 = load i8, ptr %33, align 1, !tbaa !37
  %35 = add i8 %34, -58
  %or.cond.i = icmp ult i8 %35, -10
  br i1 %or.cond.i, label %_zend_handle_numeric_str.exit.thread, label %_zend_handle_numeric_str.exit

_zend_handle_numeric_str.exit:                    ; preds = %29, %32
  %36 = call zeroext i1 @_zend_handle_numeric_str_ex(ptr noundef nonnull %24, i64 noundef %26, ptr noundef nonnull %5) #17
  br i1 %36, label %37, label %_zend_handle_numeric_str.exit.thread

37:                                               ; preds = %_zend_handle_numeric_str.exit
  %38 = load i64, ptr %5, align 8, !tbaa !103
  %39 = call ptr @zend_hash_index_update(ptr noundef %3, i64 noundef %38, ptr noundef nonnull %7) #17
  br label %zend_symtable_update.exit

_zend_handle_numeric_str.exit.thread:             ; preds = %32, %31, %22, %_zend_handle_numeric_str.exit
  %40 = call ptr @zend_hash_update(ptr noundef %3, ptr noundef nonnull %23, ptr noundef nonnull %7) #17
  br label %zend_symtable_update.exit

zend_symtable_update.exit:                        ; preds = %37, %_zend_handle_numeric_str.exit.thread
  call void @llvm.lifetime.end.p0(i64 8, ptr nonnull %5) #17
  br label %41

41:                                               ; preds = %zend_symtable_update.exit, %18
  call void @zval_ptr_dtor(ptr noundef nonnull %6) #17
  call void @llvm.lifetime.end.p0(i64 16, ptr nonnull %7) #17
  call void @llvm.lifetime.end.p0(i64 16, ptr nonnull %6) #17
  br label %42

42:                                               ; preds = %4, %41, %12
  %.0 = phi i1 [ false, %12 ], [ true, %41 ], [ false, %4 ]
  ret i1 %.0
}